; Function Attrs: mustprogress uwtable
define noundef ptr @_ZN6icu_758TimeZone16dereferOlsonLinkERKNS_13UnicodeStringE(ptr noundef nonnull align 8 dereferenceable(64) %id) local_unnamed_addr #0 align 2 {
entry:
  %ec = alloca i32, align 4
  store i32 0, ptr %ec, align 4
  %call = call ptr @ures_openDirect_75(ptr noundef null, ptr noundef nonnull @.str.4, ptr noundef nonnull %ec)
  %call1 = call ptr @ures_getByKey_75(ptr noundef %call, ptr noundef nonnull @.str.3, ptr noundef null, ptr noundef nonnull %ec)
  %call2 = call fastcc noundef i32 @_ZN6icu_75L17findInStringArrayEP15UResourceBundleRKNS_13UnicodeStringER10UErrorCode(ptr noundef %call1, ptr noundef nonnull align 8 dereferenceable(64) %id, ptr noundef nonnull align 4 dereferenceable(4) %ec), !range !12
  %call3 = call ptr @ures_getStringByIndex_75(ptr noundef %call1, i32 noundef %call2, ptr noundef null, ptr noundef nonnull %ec)
  %call4 = call ptr @ures_getByKey_75(ptr noundef %call, ptr noundef nonnull @.str.5, ptr noundef %call, ptr noundef nonnull %ec)
  %call5 = call ptr @ures_getByIndex_75(ptr noundef %call, i32 noundef %call2, ptr noundef %call, ptr noundef nonnull %ec)
  %0 = load i32, ptr %ec, align 4
  %cmp.i = icmp sgt i32 %0, 0
  br i1 %cmp.i, label %if.end15, label %if.then

if.then:                                          ; preds = %entry
  %call7 = call i32 @ures_getType_75(ptr noundef %call)
  %cmp = icmp eq i32 %call7, 7
  br i1 %cmp, label %if.then8, label %if.end15

if.then8:                                         ; preds = %if.then
  %call9 = call i32 @ures_getInt_75(ptr noundef %call, ptr noundef nonnull %ec)
  %call10 = call ptr @ures_getStringByIndex_75(ptr noundef %call1, i32 noundef %call9, ptr noundef null, ptr noundef nonnull %ec)
  %1 = load i32, ptr %ec, align 4
  %cmp.i12 = icmp sgt i32 %1, 0
  %spec.select = select i1 %cmp.i12, ptr %call3, ptr %call10
  br label %if.end15

if.end15:                                         ; preds = %if.then8, %if.then, %entry
  %result.0 = phi ptr [ %call3, %if.then ], [ %call3, %entry ], [ %spec.select, %if.then8 ]
  call void @ures_close_75(ptr noundef %call1)
  call void @ures_close_75(ptr noundef %call)
  ret ptr %result.0
}